; Function Attrs: mustprogress uwtable
define void @_ZN3net25LocalStrikeRegisterClientC2EjjjPKhNS_14StrikeRegister11StartupTypeE(ptr noundef nonnull align 8 dereferenceable(104) initializes((0, 8)) %0, i32 noundef %1, i32 noundef %2, i32 noundef %3, ptr noundef %4, i32 noundef %5) unnamed_addr #0 align 2 personality ptr @__gxx_personality_v0 {
_ZN4base4LockC2Ev.exit:
  store ptr getelementptr inbounds nuw inrange(-16, 32) (i8, ptr @_ZTVN3net25LocalStrikeRegisterClientE, i64 16), ptr %0, align 8, !tbaa !3
  %6 = getelementptr inbounds nuw i8, ptr %0, i64 8
  tail call void @_ZN4base8internal8LockImplC1Ev(ptr noundef nonnull align 8 dereferenceable(40) %6)
  %7 = getelementptr inbounds nuw i8, ptr %0, i64 48
  invoke void @_ZN3net14StrikeRegisterC1EjjjPKhNS0_11StartupTypeE(ptr noundef nonnull align 8 dereferenceable(56) %7, i32 noundef %1, i32 noundef %2, i32 noundef %3, ptr noundef %4, i32 noundef %5)
          to label %8 unwind label %9

8:                                                ; preds = %_ZN4base4LockC2Ev.exit
  ret void

9:                                                ; preds = %_ZN4base4LockC2Ev.exit
  %10 = landingpad { ptr, i32 }
          cleanup
  tail call void @_ZN4base8internal8LockImplD1Ev(ptr noundef nonnull align 8 dereferenceable(40) %6) #8
  resume { ptr, i32 } %10
}